; Function Attrs: mustprogress uwtable
define noundef range(i64 -2147483648, 2147483648) i64 @_ZNK8QuantLib9Thirty3609ISDA_Impl8dayCountERKNS_4DateES4_(ptr nocapture noundef nonnull readonly align 8 dereferenceable(16) %this, ptr noundef nonnull align 8 dereferenceable(8) %d1, ptr noundef nonnull align 8 dereferenceable(8) %d2) unnamed_addr #0 align 2 {
entry:
  %0 = load i64, ptr %d1, align 8, !tbaa !20
  %call.i.i = tail call noundef i32 @_ZNK8QuantLib4Date4yearEv(ptr noundef nonnull align 8 dereferenceable(8) %d1)
  %call2.i.i = tail call noundef i64 @_ZN8QuantLib4Date10yearOffsetEi(i32 noundef %call.i.i)
  %sub.i.i = sub nsw i64 %0, %call2.i.i
  %conv.i.i = trunc i64 %sub.i.i to i32
  %call2.i = tail call noundef i32 @_ZNK8QuantLib4Date5monthEv(ptr noundef nonnull align 8 dereferenceable(8) %d1)
  %call3.i = tail call noundef i32 @_ZNK8QuantLib4Date4yearEv(ptr noundef nonnull align 8 dereferenceable(8) %d1)
  %call4.i = tail call noundef zeroext i1 @_ZN8QuantLib4Date6isLeapEi(i32 noundef %call3.i)
  %call5.i = tail call noundef i32 @_ZN8QuantLib4Date11monthOffsetENS_5MonthEb(i32 noundef %call2.i, i1 noundef zeroext %call4.i)
  %sub.i = sub nsw i32 %conv.i.i, %call5.i
  %1 = load i64, ptr %d2, align 8, !tbaa !20
  %call.i.i16 = tail call noundef i32 @_ZNK8QuantLib4Date4yearEv(ptr noundef nonnull align 8 dereferenceable(8) %d2)
  %call2.i.i17 = tail call noundef i64 @_ZN8QuantLib4Date10yearOffsetEi(i32 noundef %call.i.i16)
  %sub.i.i18 = sub nsw i64 %1, %call2.i.i17
  %conv.i.i19 = trunc i64 %sub.i.i18 to i32
  %call2.i20 = tail call noundef i32 @_ZNK8QuantLib4Date5monthEv(ptr noundef nonnull align 8 dereferenceable(8) %d2)
  %call3.i21 = tail call noundef i32 @_ZNK8QuantLib4Date4yearEv(ptr noundef nonnull align 8 dereferenceable(8) %d2)
  %call4.i22 = tail call noundef zeroext i1 @_ZN8QuantLib4Date6isLeapEi(i32 noundef %call3.i21)
  %call5.i23 = tail call noundef i32 @_ZN8QuantLib4Date11monthOffsetENS_5MonthEb(i32 noundef %call2.i20, i1 noundef zeroext %call4.i22)
  %sub.i24 = sub nsw i32 %conv.i.i19, %call5.i23
  %call3 = tail call noundef i32 @_ZNK8QuantLib4Date5monthEv(ptr noundef nonnull align 8 dereferenceable(8) %d1)
  %call4 = tail call noundef i32 @_ZNK8QuantLib4Date5monthEv(ptr noundef nonnull align 8 dereferenceable(8) %d2)
  %call5 = tail call noundef i32 @_ZNK8QuantLib4Date4yearEv(ptr noundef nonnull align 8 dereferenceable(8) %d1)
  %call6 = tail call noundef i32 @_ZNK8QuantLib4Date4yearEv(ptr noundef nonnull align 8 dereferenceable(8) %d2)
  %cmp = icmp eq i32 %sub.i, 31
  %spec.store.select = select i1 %cmp, i32 30, i32 %sub.i
  %spec.store.select.fr = freeze i32 %spec.store.select
  %cmp7 = icmp eq i32 %sub.i24, 31
  %spec.store.select1 = select i1 %cmp7, i32 30, i32 %sub.i24
  %spec.store.select1.fr = freeze i32 %spec.store.select1
  %cmp.i = icmp eq i32 %call3, 2
  br i1 %cmp.i, label %_ZN8QuantLib12_GLOBAL__N_116isLastOfFebruaryEiNS_5MonthEi.exit, label %_ZN8QuantLib12_GLOBAL__N_116isLastOfFebruaryEiNS_5MonthEi.exit.thread

_ZN8QuantLib12_GLOBAL__N_116isLastOfFebruaryEiNS_5MonthEi.exit: ; preds = %entry
  %call.i = tail call noundef zeroext i1 @_ZN8QuantLib4Date6isLeapEi(i32 noundef %call5)
  %add.i = select i1 %call.i, i32 29, i32 28
  %cmp1.i = icmp eq i32 %spec.store.select.fr, %add.i
  %spec.select = select i1 %cmp1.i, i32 30, i32 %spec.store.select.fr
  br label %_ZN8QuantLib12_GLOBAL__N_116isLastOfFebruaryEiNS_5MonthEi.exit.thread

_ZN8QuantLib12_GLOBAL__N_116isLastOfFebruaryEiNS_5MonthEi.exit.thread: ; preds = %_ZN8QuantLib12_GLOBAL__N_116isLastOfFebruaryEiNS_5MonthEi.exit, %entry
  %2 = phi i32 [ %spec.store.select.fr, %entry ], [ %spec.select, %_ZN8QuantLib12_GLOBAL__N_116isLastOfFebruaryEiNS_5MonthEi.exit ]
  %terminationDate_ = getelementptr inbounds nuw i8, ptr %this, i64 8
  %3 = load i64, ptr %d2, align 8, !tbaa !20
  %4 = load i64, ptr %terminationDate_, align 8, !tbaa !20
  %cmp.i25 = icmp ne i64 %3, %4
  %cmp.i26 = icmp eq i32 %call4, 2
  %or.cond = and i1 %cmp.i26, %cmp.i25
  br i1 %or.cond, label %_ZN8QuantLib12_GLOBAL__N_116isLastOfFebruaryEiNS_5MonthEi.exit31, label %if.end16

_ZN8QuantLib12_GLOBAL__N_116isLastOfFebruaryEiNS_5MonthEi.exit31: ; preds = %_ZN8QuantLib12_GLOBAL__N_116isLastOfFebruaryEiNS_5MonthEi.exit.thread
  %call.i28 = tail call noundef zeroext i1 @_ZN8QuantLib4Date6isLeapEi(i32 noundef %call6)
  %add.i29 = select i1 %call.i28, i32 29, i32 28
  %cmp1.i30 = icmp eq i32 %spec.store.select1.fr, %add.i29
  %spec.select35 = select i1 %cmp1.i30, i32 30, i32 %spec.store.select1.fr
  br label %if.end16

if.end16:                                         ; preds = %_ZN8QuantLib12_GLOBAL__N_116isLastOfFebruaryEiNS_5MonthEi.exit31, %_ZN8QuantLib12_GLOBAL__N_116isLastOfFebruaryEiNS_5MonthEi.exit.thread
  %dd2.0 = phi i32 [ %spec.store.select1.fr, %_ZN8QuantLib12_GLOBAL__N_116isLastOfFebruaryEiNS_5MonthEi.exit.thread ], [ %spec.select35, %_ZN8QuantLib12_GLOBAL__N_116isLastOfFebruaryEiNS_5MonthEi.exit31 ]
  %sub = sub nsw i32 %call6, %call5
  %mul = mul nsw i32 %sub, 360
  %sub17 = sub nsw i32 %call4, %call3
  %mul18 = mul nsw i32 %sub17, 30
  %sub19 = add i32 %mul, %mul18
  %add = sub i32 %sub19, %2
  %add20 = add i32 %add, %dd2.0
  %conv = sext i32 %add20 to i64
  ret i64 %conv
}